; Function Attrs: nounwind uwtable
define internal i32 @cmd_multi_pack_index_expire(i32 noundef %0, ptr noundef %1, ptr noundef %2, ptr readnone captures(none) %3) #0 {
  %5 = tail call ptr @parse_options_concat(ptr noundef nonnull @common_opts, ptr noundef nonnull @cmd_multi_pack_index_expire.builtin_multi_pack_index_expire_options) #9
  %6 = load ptr, ptr %1, align 8, !tbaa !56
  tail call void @trace2_cmd_mode_fl(ptr noundef nonnull @.str.9, i32 noundef 226, ptr noundef %6) #9
  %7 = tail call i32 @isatty(i32 noundef 2) #9
  %.not = icmp eq i32 %7, 0
  br i1 %.not, label %11, label %8

8:                                                ; preds = %4
  %9 = load i32, ptr getelementptr inbounds nuw (i8, ptr @opts, i64 32), align 8, !tbaa !57
  %10 = or i32 %9, 1
  store i32 %10, ptr getelementptr inbounds nuw (i8, ptr @opts, i64 32), align 8, !tbaa !57
  br label %11

11:                                               ; preds = %8, %4
  %12 = tail call i32 @parse_options(i32 noundef %0, ptr noundef nonnull %1, ptr noundef %2, ptr noundef %5, ptr noundef nonnull @builtin_multi_pack_index_expire_usage, i32 noundef 0) #9
  %.not7 = icmp eq i32 %12, 0
  br i1 %.not7, label %14, label %13

13:                                               ; preds = %11
  tail call void @usage_with_options(ptr noundef nonnull @builtin_multi_pack_index_expire_usage, ptr noundef %5) #10
  unreachable

14:                                               ; preds = %11
  tail call void @free(ptr noundef %5) #9
  %15 = load ptr, ptr @the_repository, align 8, !tbaa !17
  %16 = load ptr, ptr @opts, align 8, !tbaa !54
  %17 = load i32, ptr getelementptr inbounds nuw (i8, ptr @opts, i64 32), align 8, !tbaa !57
  %18 = tail call i32 @expire_midx_packs(ptr noundef %15, ptr noundef %16, i32 noundef %17) #9
  ret i32 %18
}